target datalayout = "e-m:e-p270:32:32-p271:32:32-p272:64:64-i64:64-i128:128-f80:128-n8:16:32:64-S128"
target triple = "x86_64-pc-linux-gnu"

%struct.ossl_param_st = type { ptr, i32, ptr, i64, i64 }
%struct.TEST_ENCAPDATA = type { ptr, ptr, i64, ptr, i64, ptr, i64, ptr, i64, ptr, i64, ptr, i64, ptr, i64 }

@libctx = internal global ptr null, align 8
@opparam = internal global [2 x %struct.ossl_param_st] zeroinitializer, align 16
@.str.3 = private unnamed_addr constant [38 x i8] c"../openssl/test/evp_pkey_dhkem_test.c\00", align 1
@.str.37 = private unnamed_addr constant [23 x i8] c"Test %s %s Decapsulate\00", align 1
@.str.38 = private unnamed_addr constant [5 x i8] c"Auth\00", align 1
@.str.39 = private unnamed_addr constant [1 x i8] zeroinitializer, align 1
@.str.47 = private unnamed_addr constant [31 x i8] c"../openssl/test/dhkem_test.inc\00", align 1
@.str.50 = private unnamed_addr constant [2 x i8] c"1\00", align 1
@.str.56 = private unnamed_addr constant [7 x i8] c"secret\00", align 1
@.str.57 = private unnamed_addr constant [19 x i8] c"t->expected_secret\00", align 1
@.str.58 = private unnamed_addr constant [82 x i8] c"rpriv = new_raw_private_key(t->curve, t->rpriv, t->rprivlen, t->rpub, t->rpublen)\00", align 1
@.str.59 = private unnamed_addr constant [57 x i8] c"spub = new_raw_public_key(t->curve, t->spub, t->spublen)\00", align 1
@.str.60 = private unnamed_addr constant [59 x i8] c"recipctx = EVP_PKEY_CTX_new_from_pkey(libctx, rpriv, NULL)\00", align 1
@.str.61 = private unnamed_addr constant [45 x i8] c"EVP_PKEY_decapsulate_init(recipctx, opparam)\00", align 1
@.str.62 = private unnamed_addr constant [56 x i8] c"EVP_PKEY_auth_decapsulate_init(recipctx, spub, opparam)\00", align 1
@.str.63 = private unnamed_addr constant [86 x i8] c"EVP_PKEY_decapsulate(recipctx, NULL, &secretlen, t->expected_enc, t->expected_enclen)\00", align 1
@.str.64 = private unnamed_addr constant [88 x i8] c"EVP_PKEY_decapsulate(recipctx, secret, &secretlen, t->expected_enc, t->expected_enclen)\00", align 1

; Function Attrs: nounwind uwtable
define internal i32 @do_decap(ptr noundef %0, ptr noundef %1, ptr noundef %2) #0 {
  %4 = alloca ptr, align 8
  %5 = alloca ptr, align 8
  %6 = alloca ptr, align 8
  %7 = alloca i32, align 4
  %8 = alloca ptr, align 8
  %9 = alloca [256 x i8], align 16
  %10 = alloca i64, align 8
  store ptr %0, ptr %4, align 8, !tbaa !12
  store ptr %1, ptr %5, align 8, !tbaa !17
  store ptr %2, ptr %6, align 8, !tbaa !17
  call void @llvm.lifetime.start.p0(i64 4, ptr %7) #6
  store i32 0, ptr %7, align 4, !tbaa !10
  call void @llvm.lifetime.start.p0(i64 8, ptr %8) #6
  store ptr null, ptr %8, align 8, !tbaa !19
  call void @llvm.lifetime.start.p0(i64 256, ptr %9) #6
  call void @llvm.memset.p0.i64(ptr align 16 %9, i8 0, i64 256, i1 false)
  call void @llvm.lifetime.start.p0(i64 8, ptr %10) #6
  store i64 0, ptr %10, align 8, !tbaa !13
  %11 = load ptr, ptr @libctx, align 8, !tbaa !15
  %12 = load ptr, ptr %5, align 8, !tbaa !17
  %13 = call ptr @EVP_PKEY_CTX_new_from_pkey(ptr noundef %11, ptr noundef %12, ptr noundef null)
  store ptr %13, ptr %8, align 8, !tbaa !19
  %14 = call i32 @test_ptr(ptr noundef @.str.47, i32 noundef 696, ptr noundef @.str.60, ptr noundef %13)
  %15 = icmp ne i32 %14, 0
  br i1 %15, label %17, label %16

16:                                               ; preds = %3
  br label %74

17:                                               ; preds = %3
  %18 = load ptr, ptr %4, align 8, !tbaa !12
  %19 = getelementptr inbounds nuw %struct.TEST_ENCAPDATA, ptr %18, i32 0, i32 11
  %20 = load ptr, ptr %19, align 8, !tbaa !27
  %21 = icmp eq ptr %20, null
  br i1 %21, label %22, label %29

22:                                               ; preds = %17
  %23 = load ptr, ptr %8, align 8, !tbaa !19
  %24 = call i32 @EVP_PKEY_decapsulate_init(ptr noundef %23, ptr noundef @opparam)
  %25 = call i32 @test_int_eq(ptr noundef @.str.47, i32 noundef 699, ptr noundef @.str.61, ptr noundef @.str.50, i32 noundef %24, i32 noundef 1)
  %26 = icmp ne i32 %25, 0
  br i1 %26, label %28, label %27

27:                                               ; preds = %22
  br label %74

28:                                               ; preds = %22
  br label %37

29:                                               ; preds = %17
  %30 = load ptr, ptr %8, align 8, !tbaa !19
  %31 = load ptr, ptr %6, align 8, !tbaa !17
  %32 = call i32 @EVP_PKEY_auth_decapsulate_init(ptr noundef %30, ptr noundef %31, ptr noundef @opparam)
  %33 = call i32 @test_int_eq(ptr noundef @.str.47, i32 noundef 703, ptr noundef @.str.62, ptr noundef @.str.50, i32 noundef %32, i32 noundef 1)
  %34 = icmp ne i32 %33, 0
  br i1 %34, label %36, label %35

35:                                               ; preds = %29
  br label %74

36:                                               ; preds = %29
  br label %37

37:                                               ; preds = %36, %28
  %38 = load ptr, ptr %8, align 8, !tbaa !19
  %39 = load ptr, ptr %4, align 8, !tbaa !12
  %40 = getelementptr inbounds nuw %struct.TEST_ENCAPDATA, ptr %39, i32 0, i32 7
  %41 = load ptr, ptr %40, align 8, !tbaa !35
  %42 = load ptr, ptr %4, align 8, !tbaa !12
  %43 = getelementptr inbounds nuw %struct.TEST_ENCAPDATA, ptr %42, i32 0, i32 8
  %44 = load i64, ptr %43, align 8, !tbaa !36
  %45 = call i32 @EVP_PKEY_decapsulate(ptr noundef %38, ptr noundef null, ptr noundef %10, ptr noundef %41, i64 noundef %44)
  %46 = call i32 @test_int_eq(ptr noundef @.str.47, i32 noundef 708, ptr noundef @.str.63, ptr noundef @.str.50, i32 noundef %45, i32 noundef 1)
  %47 = icmp ne i32 %46, 0
  br i1 %47, label %48, label %71

48:                                               ; preds = %37
  %49 = load ptr, ptr %8, align 8, !tbaa !19
  %50 = getelementptr inbounds [256 x i8], ptr %9, i64 0, i64 0
  %51 = load ptr, ptr %4, align 8, !tbaa !12
  %52 = getelementptr inbounds nuw %struct.TEST_ENCAPDATA, ptr %51, i32 0, i32 7
  %53 = load ptr, ptr %52, align 8, !tbaa !35
  %54 = load ptr, ptr %4, align 8, !tbaa !12
  %55 = getelementptr inbounds nuw %struct.TEST_ENCAPDATA, ptr %54, i32 0, i32 8
  %56 = load i64, ptr %55, align 8, !tbaa !36
  %57 = call i32 @EVP_PKEY_decapsulate(ptr noundef %49, ptr noundef %50, ptr noundef %10, ptr noundef %53, i64 noundef %56)
  %58 = call i32 @test_int_eq(ptr noundef @.str.47, i32 noundef 711, ptr noundef @.str.64, ptr noundef @.str.50, i32 noundef %57, i32 noundef 1)
  %59 = icmp ne i32 %58, 0
  br i1 %59, label %60, label %71

60:                                               ; preds = %48
  %61 = getelementptr inbounds [256 x i8], ptr %9, i64 0, i64 0
  %62 = load i64, ptr %10, align 8, !tbaa !13
  %63 = load ptr, ptr %4, align 8, !tbaa !12
  %64 = getelementptr inbounds nuw %struct.TEST_ENCAPDATA, ptr %63, i32 0, i32 9
  %65 = load ptr, ptr %64, align 8, !tbaa !54
  %66 = load ptr, ptr %4, align 8, !tbaa !12
  %67 = getelementptr inbounds nuw %struct.TEST_ENCAPDATA, ptr %66, i32 0, i32 10
  %68 = load i64, ptr %67, align 8, !tbaa !55
  %69 = call i32 @test_mem_eq(ptr noundef @.str.47, i32 noundef 713, ptr noundef @.str.56, ptr noundef @.str.57, ptr noundef %61, i64 noundef %62, ptr noundef %65, i64 noundef %68)
  %70 = icmp ne i32 %69, 0
  br label %71

71:                                               ; preds = %60, %48, %37
  %72 = phi i1 [ false, %48 ], [ false, %37 ], [ %70, %60 ]
  %73 = zext i1 %72 to i32
  store i32 %73, ptr %7, align 4, !tbaa !10
  br label %74

74:                                               ; preds = %71, %35, %27, %16
  %75 = load ptr, ptr %8, align 8, !tbaa !19
  call void @EVP_PKEY_CTX_free(ptr noundef %75)
  %76 = load i32, ptr %7, align 4, !tbaa !10
  call void @llvm.lifetime.end.p0(i64 8, ptr %10) #6
  call void @llvm.lifetime.end.p0(i64 256, ptr %9) #6
  call void @llvm.lifetime.end.p0(i64 8, ptr %8) #6
  call void @llvm.lifetime.end.p0(i64 4, ptr %7) #6
  ret i32 %76
}

; Function Attrs: nounwind uwtable
define internal i32 @test_dhkem_decapsulate(i32 noundef %0) #0 {
  %2 = alloca i32, align 4
  %3 = alloca i32, align 4
  %4 = alloca ptr, align 8
  %5 = alloca ptr, align 8
  %6 = alloca ptr, align 8
  store i32 %0, ptr %2, align 4, !tbaa !10
  call void @llvm.lifetime.start.p0(i64 4, ptr %3) #6
  store i32 0, ptr %3, align 4, !tbaa !10
  call void @llvm.lifetime.start.p0(i64 8, ptr %4) #6
  store ptr null, ptr %4, align 8, !tbaa !17
  call void @llvm.lifetime.start.p0(i64 8, ptr %5) #6
  store ptr null, ptr %5, align 8, !tbaa !17
  call void @llvm.lifetime.start.p0(i64 8, ptr %6) #6
  %7 = load i32, ptr %2, align 4, !tbaa !10
  %8 = sext i32 %7 to i64
  %9 = getelementptr inbounds [5 x %struct.TEST_ENCAPDATA], ptr @ec_encapdata, i64 0, i64 %8
  store ptr %9, ptr %6, align 8, !tbaa !12
  %10 = load ptr, ptr %6, align 8, !tbaa !12
  %11 = getelementptr inbounds nuw %struct.TEST_ENCAPDATA, ptr %10, i32 0, i32 0
  %12 = load ptr, ptr %11, align 8, !tbaa !21
  %13 = load ptr, ptr %6, align 8, !tbaa !12
  %14 = getelementptr inbounds nuw %struct.TEST_ENCAPDATA, ptr %13, i32 0, i32 11
  %15 = load ptr, ptr %14, align 8, !tbaa !27
  %16 = icmp ne ptr %15, null
  %17 = select i1 %16, ptr @.str.38, ptr @.str.39
  call void (ptr, ...) @test_note(ptr noundef @.str.37, ptr noundef %12, ptr noundef %17)
  %18 = load ptr, ptr %6, align 8, !tbaa !12
  %19 = getelementptr inbounds nuw %struct.TEST_ENCAPDATA, ptr %18, i32 0, i32 0
  %20 = load ptr, ptr %19, align 8, !tbaa !21
  %21 = load ptr, ptr %6, align 8, !tbaa !12
  %22 = getelementptr inbounds nuw %struct.TEST_ENCAPDATA, ptr %21, i32 0, i32 5
  %23 = load ptr, ptr %22, align 8, !tbaa !29
  %24 = load ptr, ptr %6, align 8, !tbaa !12
  %25 = getelementptr inbounds nuw %struct.TEST_ENCAPDATA, ptr %24, i32 0, i32 6
  %26 = load i64, ptr %25, align 8, !tbaa !30
  %27 = load ptr, ptr %6, align 8, !tbaa !12
  %28 = getelementptr inbounds nuw %struct.TEST_ENCAPDATA, ptr %27, i32 0, i32 3
  %29 = load ptr, ptr %28, align 8, !tbaa !24
  %30 = load ptr, ptr %6, align 8, !tbaa !12
  %31 = getelementptr inbounds nuw %struct.TEST_ENCAPDATA, ptr %30, i32 0, i32 4
  %32 = load i64, ptr %31, align 8, !tbaa !25
  %33 = call ptr @new_raw_private_key(ptr noundef %20, ptr noundef %23, i64 noundef %26, ptr noundef %29, i64 noundef %32)
  store ptr %33, ptr %4, align 8, !tbaa !17
  %34 = call i32 @test_ptr(ptr noundef @.str.3, i32 noundef 74, ptr noundef @.str.58, ptr noundef %33)
  %35 = icmp ne i32 %34, 0
  br i1 %35, label %37, label %36

36:                                               ; preds = %1
  br label %62

37:                                               ; preds = %1
  %38 = load ptr, ptr %6, align 8, !tbaa !12
  %39 = getelementptr inbounds nuw %struct.TEST_ENCAPDATA, ptr %38, i32 0, i32 11
  %40 = load ptr, ptr %39, align 8, !tbaa !27
  %41 = icmp ne ptr %40, null
  br i1 %41, label %42, label %57

42:                                               ; preds = %37
  %43 = load ptr, ptr %6, align 8, !tbaa !12
  %44 = getelementptr inbounds nuw %struct.TEST_ENCAPDATA, ptr %43, i32 0, i32 0
  %45 = load ptr, ptr %44, align 8, !tbaa !21
  %46 = load ptr, ptr %6, align 8, !tbaa !12
  %47 = getelementptr inbounds nuw %struct.TEST_ENCAPDATA, ptr %46, i32 0, i32 11
  %48 = load ptr, ptr %47, align 8, !tbaa !27
  %49 = load ptr, ptr %6, align 8, !tbaa !12
  %50 = getelementptr inbounds nuw %struct.TEST_ENCAPDATA, ptr %49, i32 0, i32 12
  %51 = load i64, ptr %50, align 8, !tbaa !28
  %52 = call ptr @new_raw_public_key(ptr noundef %45, ptr noundef %48, i64 noundef %51)
  store ptr %52, ptr %5, align 8, !tbaa !17
  %53 = call i32 @test_ptr(ptr noundef @.str.3, i32 noundef 77, ptr noundef @.str.59, ptr noundef %52)
  %54 = icmp ne i32 %53, 0
  br i1 %54, label %56, label %55

55:                                               ; preds = %42
  br label %62

56:                                               ; preds = %42
  br label %57

57:                                               ; preds = %56, %37
  %58 = load ptr, ptr %6, align 8, !tbaa !12
  %59 = load ptr, ptr %4, align 8, !tbaa !17
  %60 = load ptr, ptr %5, align 8, !tbaa !17
  %61 = call i32 @do_decap(ptr noundef %58, ptr noundef %59, ptr noundef %60)
  store i32 %61, ptr %3, align 4, !tbaa !10
  br label %62

62:                                               ; preds = %57, %55, %36
  %63 = load ptr, ptr %5, align 8, !tbaa !17
  call void @EVP_PKEY_free(ptr noundef %63)
  %64 = load ptr, ptr %4, align 8, !tbaa !17
  call void @EVP_PKEY_free(ptr noundef %64)
  %65 = load i32, ptr %3, align 4, !tbaa !10
  call void @llvm.lifetime.end.p0(i64 8, ptr %6) #6
  call void @llvm.lifetime.end.p0(i64 8, ptr %5) #6
  call void @llvm.lifetime.end.p0(i64 8, ptr %4) #6
  call void @llvm.lifetime.end.p0(i64 4, ptr %3) #6
  ret i32 %65
}