; Function Attrs: nounwind uwtable
define internal range(i32 0, 2) i32 @test_dhkem_decapsulate(i32 noundef %0) #0 {
  %2 = alloca [256 x i8], align 16
  %3 = alloca i64, align 8
  %4 = sext i32 %0 to i64
  %5 = getelementptr inbounds [5 x %struct.TEST_ENCAPDATA], ptr @ec_encapdata, i64 0, i64 %4
  %6 = load ptr, ptr %5, align 8, !tbaa !21
  %7 = getelementptr inbounds nuw i8, ptr %5, i64 88
  %8 = load ptr, ptr %7, align 8, !tbaa !27
  %.not = icmp eq ptr %8, null
  %9 = select i1 %.not, ptr @.str.39, ptr @.str.38
  tail call void (ptr, ...) @test_note(ptr noundef nonnull @.str.37, ptr noundef %6, ptr noundef nonnull %9) #5
  %10 = getelementptr inbounds nuw i8, ptr %5, i64 40
  %11 = load ptr, ptr %10, align 8, !tbaa !35
  %12 = getelementptr inbounds nuw i8, ptr %5, i64 48
  %13 = load i64, ptr %12, align 8, !tbaa !36
  %14 = getelementptr inbounds nuw i8, ptr %5, i64 24
  %15 = load ptr, ptr %14, align 8, !tbaa !24
  %16 = getelementptr inbounds nuw i8, ptr %5, i64 32
  %17 = load i64, ptr %16, align 8, !tbaa !25
  %18 = tail call fastcc ptr @new_raw_private_key(ptr noundef %6, ptr noundef %11, i64 noundef %13, ptr noundef %15, i64 noundef %17)
  %19 = tail call i32 @test_ptr(ptr noundef nonnull @.str.3, i32 noundef 74, ptr noundef nonnull @.str.58, ptr noundef %18) #5
  %.not19 = icmp eq i32 %19, 0
  br i1 %.not19, label %56, label %20

20:                                               ; preds = %1
  br i1 %.not, label %26, label %21

21:                                               ; preds = %20
  %22 = getelementptr inbounds nuw i8, ptr %5, i64 96
  %23 = load i64, ptr %22, align 8, !tbaa !28
  %24 = tail call fastcc ptr @new_raw_public_key(ptr noundef %6, ptr noundef nonnull %8, i64 noundef %23)
  %25 = tail call i32 @test_ptr(ptr noundef nonnull @.str.3, i32 noundef 77, ptr noundef nonnull @.str.59, ptr noundef %24) #5
  %.not21 = icmp eq i32 %25, 0
  br i1 %.not21, label %56, label %26

26:                                               ; preds = %21, %20
  %.1 = phi ptr [ %24, %21 ], [ null, %20 ]
  call void @llvm.lifetime.start.p0(i64 256, ptr nonnull %2) #5
  call void @llvm.memset.p0.i64(ptr noundef nonnull align 16 dereferenceable(256) %2, i8 0, i64 256, i1 false)
  call void @llvm.lifetime.start.p0(i64 8, ptr nonnull %3) #5
  store i64 0, ptr %3, align 8, !tbaa !13
  %27 = load ptr, ptr @libctx, align 8, !tbaa !15
  %28 = tail call ptr @EVP_PKEY_CTX_new_from_pkey(ptr noundef %27, ptr noundef %18, ptr noundef null) #5
  %29 = tail call i32 @test_ptr(ptr noundef nonnull @.str.47, i32 noundef 696, ptr noundef nonnull @.str.60, ptr noundef %28) #5
  %.not.i = icmp eq i32 %29, 0
  br i1 %.not.i, label %do_decap.exit, label %30

30:                                               ; preds = %26
  br i1 %.not, label %31, label %34

31:                                               ; preds = %30
  %32 = tail call i32 @EVP_PKEY_decapsulate_init(ptr noundef %28, ptr noundef nonnull @opparam) #5
  %33 = tail call i32 @test_int_eq(ptr noundef nonnull @.str.47, i32 noundef 699, ptr noundef nonnull @.str.61, ptr noundef nonnull @.str.50, i32 noundef %32, i32 noundef 1) #5
  %.not15.i = icmp eq i32 %33, 0
  br i1 %.not15.i, label %do_decap.exit, label %37

34:                                               ; preds = %30
  %35 = tail call i32 @EVP_PKEY_auth_decapsulate_init(ptr noundef %28, ptr noundef %.1, ptr noundef nonnull @opparam) #5
  %36 = tail call i32 @test_int_eq(ptr noundef nonnull @.str.47, i32 noundef 703, ptr noundef nonnull @.str.62, ptr noundef nonnull @.str.50, i32 noundef %35, i32 noundef 1) #5
  %.not14.i = icmp eq i32 %36, 0
  br i1 %.not14.i, label %do_decap.exit, label %37

37:                                               ; preds = %34, %31
  %38 = getelementptr inbounds nuw i8, ptr %5, i64 56
  %39 = load ptr, ptr %38, align 8, !tbaa !31
  %40 = getelementptr inbounds nuw i8, ptr %5, i64 64
  %41 = load i64, ptr %40, align 8, !tbaa !32
  %42 = call i32 @EVP_PKEY_decapsulate(ptr noundef %28, ptr noundef null, ptr noundef nonnull %3, ptr noundef %39, i64 noundef %41) #5
  %43 = call i32 @test_int_eq(ptr noundef nonnull @.str.47, i32 noundef 708, ptr noundef nonnull @.str.63, ptr noundef nonnull @.str.50, i32 noundef %42, i32 noundef 1) #5
  %.not16.i = icmp eq i32 %43, 0
  br i1 %.not16.i, label %do_decap.exit, label %44

44:                                               ; preds = %37
  %45 = call i32 @EVP_PKEY_decapsulate(ptr noundef %28, ptr noundef nonnull %2, ptr noundef nonnull %3, ptr noundef %39, i64 noundef %41) #5
  %46 = call i32 @test_int_eq(ptr noundef nonnull @.str.47, i32 noundef 711, ptr noundef nonnull @.str.64, ptr noundef nonnull @.str.50, i32 noundef %45, i32 noundef 1) #5
  %.not17.i = icmp eq i32 %46, 0
  br i1 %.not17.i, label %do_decap.exit, label %47

47:                                               ; preds = %44
  %48 = load i64, ptr %3, align 8, !tbaa !13
  %49 = getelementptr inbounds nuw i8, ptr %5, i64 72
  %50 = load ptr, ptr %49, align 8, !tbaa !33
  %51 = getelementptr inbounds nuw i8, ptr %5, i64 80
  %52 = load i64, ptr %51, align 8, !tbaa !34
  %53 = call i32 @test_mem_eq(ptr noundef nonnull @.str.47, i32 noundef 713, ptr noundef nonnull @.str.56, ptr noundef nonnull @.str.57, ptr noundef nonnull %2, i64 noundef %48, ptr noundef %50, i64 noundef %52) #5
  %54 = icmp ne i32 %53, 0
  %55 = zext i1 %54 to i32
  br label %do_decap.exit

do_decap.exit:                                    ; preds = %26, %31, %34, %37, %44, %47
  %.0.i = phi i32 [ 0, %31 ], [ 0, %34 ], [ 0, %26 ], [ 0, %44 ], [ 0, %37 ], [ %55, %47 ]
  call void @EVP_PKEY_CTX_free(ptr noundef %28) #5
  call void @llvm.lifetime.end.p0(i64 8, ptr nonnull %3) #5
  call void @llvm.lifetime.end.p0(i64 256, ptr nonnull %2) #5
  br label %56

56:                                               ; preds = %21, %1, %do_decap.exit
  %.017 = phi ptr [ %.1, %do_decap.exit ], [ %24, %21 ], [ null, %1 ]
  %.0 = phi i32 [ %.0.i, %do_decap.exit ], [ 0, %21 ], [ 0, %1 ]
  call void @EVP_PKEY_free(ptr noundef %.017) #5
  call void @EVP_PKEY_free(ptr noundef %18) #5
  ret i32 %.0
}